target datalayout = "e-m:e-p270:32:32-p271:32:32-p272:64:64-i64:64-i128:128-f80:128-n8:16:32:64-S128"
target triple = "x86_64-unknown-linux-gnu"

; Function Attrs: mustprogress nounwind uwtable
define internal noundef zeroext i1 @_ZN8QuantLib12_GLOBAL__N_128isExtraHolidaySettlementImplEiNS_5MonthEi(i32 noundef %d, i32 noundef %month, i32 noundef %year) #1 {
entry:
  %retval = alloca i1, align 1
  %d.addr = alloca i32, align 4
  %month.addr = alloca i32, align 4
  %year.addr = alloca i32, align 4
  store i32 %d, ptr %d.addr, align 4, !tbaa !17
  store i32 %month, ptr %month.addr, align 4, !tbaa !19
  store i32 %year, ptr %year.addr, align 4, !tbaa !17
  %0 = load i32, ptr %year.addr, align 4, !tbaa !17
  switch i32 %0, label %sw.default43 [
    i32 2017, label %sw.bb
    i32 2018, label %sw.bb6
    i32 2019, label %sw.bb18
    i32 2020, label %sw.bb24
  ]

sw.bb:                                            ; preds = %entry
  %1 = load i32, ptr %month.addr, align 4, !tbaa !19
  switch i32 %1, label %sw.default [
    i32 2, label %sw.bb1
    i32 5, label %sw.bb2
    i32 11, label %sw.bb4
  ]

sw.bb1:                                           ; preds = %sw.bb
  %2 = load i32, ptr %d.addr, align 4, !tbaa !17
  %cmp = icmp eq i32 %2, 24
  store i1 %cmp, ptr %retval, align 1
  br label %return

sw.bb2:                                           ; preds = %sw.bb
  %3 = load i32, ptr %d.addr, align 4, !tbaa !17
  %cmp3 = icmp eq i32 %3, 8
  store i1 %cmp3, ptr %retval, align 1
  br label %return

sw.bb4:                                           ; preds = %sw.bb
  %4 = load i32, ptr %d.addr, align 4, !tbaa !17
  %cmp5 = icmp eq i32 %4, 6
  store i1 %cmp5, ptr %retval, align 1
  br label %return

sw.default:                                       ; preds = %sw.bb
  store i1 false, ptr %retval, align 1
  br label %return

sw.bb6:                                           ; preds = %entry
  %5 = load i32, ptr %month.addr, align 4, !tbaa !19
  switch i32 %5, label %sw.default17 [
    i32 3, label %sw.bb7
    i32 4, label %sw.bb9
    i32 5, label %sw.bb11
    i32 6, label %sw.bb13
    i32 12, label %sw.bb15
  ]

sw.bb7:                                           ; preds = %sw.bb6
  %6 = load i32, ptr %d.addr, align 4, !tbaa !17
  %cmp8 = icmp eq i32 %6, 9
  store i1 %cmp8, ptr %retval, align 1
  br label %return

sw.bb9:                                           ; preds = %sw.bb6
  %7 = load i32, ptr %d.addr, align 4, !tbaa !17
  %cmp10 = icmp eq i32 %7, 30
  store i1 %cmp10, ptr %retval, align 1
  br label %return

sw.bb11:                                          ; preds = %sw.bb6
  %8 = load i32, ptr %d.addr, align 4, !tbaa !17
  %cmp12 = icmp eq i32 %8, 2
  store i1 %cmp12, ptr %retval, align 1
  br label %return

sw.bb13:                                          ; preds = %sw.bb6
  %9 = load i32, ptr %d.addr, align 4, !tbaa !17
  %cmp14 = icmp eq i32 %9, 11
  store i1 %cmp14, ptr %retval, align 1
  br label %return

sw.bb15:                                          ; preds = %sw.bb6
  %10 = load i32, ptr %d.addr, align 4, !tbaa !17
  %cmp16 = icmp eq i32 %10, 31
  store i1 %cmp16, ptr %retval, align 1
  br label %return

sw.default17:                                     ; preds = %sw.bb6
  store i1 false, ptr %retval, align 1
  br label %return

sw.bb18:                                          ; preds = %entry
  %11 = load i32, ptr %month.addr, align 4, !tbaa !19
  switch i32 %11, label %sw.default23 [
    i32 5, label %sw.bb19
  ]

sw.bb19:                                          ; preds = %sw.bb18
  %12 = load i32, ptr %d.addr, align 4, !tbaa !17
  %cmp20 = icmp eq i32 %12, 2
  br i1 %cmp20, label %lor.end, label %lor.lhs.false

lor.lhs.false:                                    ; preds = %sw.bb19
  %13 = load i32, ptr %d.addr, align 4, !tbaa !17
  %cmp21 = icmp eq i32 %13, 3
  br i1 %cmp21, label %lor.end, label %lor.rhs

lor.rhs:                                          ; preds = %lor.lhs.false
  %14 = load i32, ptr %d.addr, align 4, !tbaa !17
  %cmp22 = icmp eq i32 %14, 10
  br label %lor.end

lor.end:                                          ; preds = %lor.rhs, %lor.lhs.false, %sw.bb19
  %15 = phi i1 [ true, %lor.lhs.false ], [ true, %sw.bb19 ], [ %cmp22, %lor.rhs ]
  store i1 %15, ptr %retval, align 1
  br label %return

sw.default23:                                     ; preds = %sw.bb18
  store i1 false, ptr %retval, align 1
  br label %return

sw.bb24:                                          ; preds = %entry
  %16 = load i32, ptr %month.addr, align 4, !tbaa !19
  switch i32 %16, label %sw.default42 [
    i32 3, label %sw.bb25
    i32 4, label %sw.bb30
    i32 5, label %sw.bb37
  ]

sw.bb25:                                          ; preds = %sw.bb24
  %17 = load i32, ptr %d.addr, align 4, !tbaa !17
  %cmp26 = icmp eq i32 %17, 30
  br i1 %cmp26, label %lor.end29, label %lor.rhs27

lor.rhs27:                                        ; preds = %sw.bb25
  %18 = load i32, ptr %d.addr, align 4, !tbaa !17
  %cmp28 = icmp eq i32 %18, 31
  br label %lor.end29

lor.end29:                                        ; preds = %lor.rhs27, %sw.bb25
  %19 = phi i1 [ true, %sw.bb25 ], [ %cmp28, %lor.rhs27 ]
  store i1 %19, ptr %retval, align 1
  br label %return

sw.bb30:                                          ; preds = %sw.bb24
  %20 = load i32, ptr %d.addr, align 4, !tbaa !17
  %cmp31 = icmp eq i32 %20, 1
  br i1 %cmp31, label %lor.end36, label %lor.lhs.false32

lor.lhs.false32:                                  ; preds = %sw.bb30
  %21 = load i32, ptr %d.addr, align 4, !tbaa !17
  %cmp33 = icmp eq i32 %21, 2
  br i1 %cmp33, label %lor.end36, label %lor.rhs34

lor.rhs34:                                        ; preds = %lor.lhs.false32
  %22 = load i32, ptr %d.addr, align 4, !tbaa !17
  %cmp35 = icmp eq i32 %22, 3
  br label %lor.end36

lor.end36:                                        ; preds = %lor.rhs34, %lor.lhs.false32, %sw.bb30
  %23 = phi i1 [ true, %lor.lhs.false32 ], [ true, %sw.bb30 ], [ %cmp35, %lor.rhs34 ]
  store i1 %23, ptr %retval, align 1
  br label %return

sw.bb37:                                          ; preds = %sw.bb24
  %24 = load i32, ptr %d.addr, align 4, !tbaa !17
  %cmp38 = icmp eq i32 %24, 4
  br i1 %cmp38, label %lor.end41, label %lor.rhs39

lor.rhs39:                                        ; preds = %sw.bb37
  %25 = load i32, ptr %d.addr, align 4, !tbaa !17
  %cmp40 = icmp eq i32 %25, 5
  br label %lor.end41

lor.end41:                                        ; preds = %lor.rhs39, %sw.bb37
  %26 = phi i1 [ true, %sw.bb37 ], [ %cmp40, %lor.rhs39 ]
  store i1 %26, ptr %retval, align 1
  br label %return

sw.default42:                                     ; preds = %sw.bb24
  store i1 false, ptr %retval, align 1
  br label %return

sw.default43:                                     ; preds = %entry
  store i1 false, ptr %retval, align 1
  br label %return

return:                                           ; preds = %sw.default43, %sw.default42, %lor.end41, %lor.end36, %lor.end29, %sw.default23, %lor.end, %sw.default17, %sw.bb15, %sw.bb13, %sw.bb11, %sw.bb9, %sw.bb7, %sw.default, %sw.bb4, %sw.bb2, %sw.bb1
  %27 = load i1, ptr %retval, align 1
  ret i1 %27
}