; Function Attrs: mustprogress nofree norecurse nosync nounwind willreturn memory(none) uwtable
define internal fastcc noundef zeroext i1 @_ZN8QuantLib12_GLOBAL__N_128isExtraHolidaySettlementImplEiNS_5MonthEi(i32 noundef %d, i32 noundef %month, i32 noundef %year) unnamed_addr #8 {
entry:
  switch i32 %year, label %return [
    i32 2017, label %sw.bb
    i32 2018, label %sw.bb6
    i32 2019, label %sw.bb18
    i32 2020, label %sw.bb24
  ]

sw.bb:                                            ; preds = %entry
  switch i32 %month, label %return [
    i32 2, label %sw.bb1
    i32 5, label %sw.bb2
    i32 11, label %sw.bb4
  ]

sw.bb1:                                           ; preds = %sw.bb
  %cmp = icmp eq i32 %d, 24
  br label %return

sw.bb2:                                           ; preds = %sw.bb
  %cmp3 = icmp eq i32 %d, 8
  br label %return

sw.bb4:                                           ; preds = %sw.bb
  %cmp5 = icmp eq i32 %d, 6
  br label %return

sw.bb6:                                           ; preds = %entry
  switch i32 %month, label %return [
    i32 3, label %sw.bb7
    i32 4, label %sw.bb9
    i32 5, label %sw.bb11
    i32 6, label %sw.bb13
    i32 12, label %sw.bb15
  ]

sw.bb7:                                           ; preds = %sw.bb6
  %cmp8 = icmp eq i32 %d, 9
  br label %return

sw.bb9:                                           ; preds = %sw.bb6
  %cmp10 = icmp eq i32 %d, 30
  br label %return

sw.bb11:                                          ; preds = %sw.bb6
  %cmp12 = icmp eq i32 %d, 2
  br label %return

sw.bb13:                                          ; preds = %sw.bb6
  %cmp14 = icmp eq i32 %d, 11
  br label %return

sw.bb15:                                          ; preds = %sw.bb6
  %cmp16 = icmp eq i32 %d, 31
  br label %return

sw.bb18:                                          ; preds = %entry
  %cond = icmp eq i32 %month, 5
  br i1 %cond, label %sw.bb19, label %return

sw.bb19:                                          ; preds = %sw.bb18
  %0 = and i32 %d, -2
  %or.cond = icmp eq i32 %0, 2
  %cmp22 = icmp eq i32 %d, 10
  %spec.select = or i1 %cmp22, %or.cond
  br label %return

sw.bb24:                                          ; preds = %entry
  switch i32 %month, label %return [
    i32 3, label %sw.bb25
    i32 4, label %sw.bb30
    i32 5, label %sw.bb37
  ]

sw.bb25:                                          ; preds = %sw.bb24
  %1 = and i32 %d, -2
  %2 = icmp eq i32 %1, 30
  br label %return

sw.bb30:                                          ; preds = %sw.bb24
  %3 = add i32 %d, -1
  %spec.select22 = icmp ult i32 %3, 3
  br label %return

sw.bb37:                                          ; preds = %sw.bb24
  %4 = and i32 %d, -2
  %5 = icmp eq i32 %4, 4
  br label %return

return:                                           ; preds = %entry, %sw.bb24, %sw.bb18, %sw.bb6, %sw.bb, %sw.bb37, %sw.bb30, %sw.bb25, %sw.bb19, %sw.bb15, %sw.bb13, %sw.bb11, %sw.bb9, %sw.bb7, %sw.bb4, %sw.bb2, %sw.bb1
  %retval.0 = phi i1 [ %5, %sw.bb37 ], [ %spec.select22, %sw.bb30 ], [ %2, %sw.bb25 ], [ %spec.select, %sw.bb19 ], [ %cmp16, %sw.bb15 ], [ %cmp14, %sw.bb13 ], [ %cmp12, %sw.bb11 ], [ %cmp10, %sw.bb9 ], [ %cmp8, %sw.bb7 ], [ %cmp5, %sw.bb4 ], [ %cmp3, %sw.bb2 ], [ %cmp, %sw.bb1 ], [ false, %sw.bb ], [ false, %sw.bb6 ], [ false, %sw.bb18 ], [ false, %sw.bb24 ], [ false, %entry ]
  ret i1 %retval.0
}